target datalayout = "e-m:e-p270:32:32-p271:32:32-p272:64:64-i64:64-i128:128-f80:128-n8:16:32:64-S128"
target triple = "x86_64-pc-linux-gnu"

%struct.lzma_options_lzma = type { i32, ptr, i32, i32, i32, i32, i32, i32, i32, i32, i32, i32, i32, i32, i32, i32, i32, i32, i32, i32, i32, i32, ptr, ptr }

@lzma_fastpos = external constant [8192 x i8], align 16

; Function Attrs: nounwind uwtable
define internal i32 @get_dist_slot(i32 noundef %0) #0 {
  %2 = alloca i32, align 4
  %3 = alloca i32, align 4
  store i32 %0, ptr %3, align 4
  %4 = load i32, ptr %3, align 4
  %5 = icmp ult i32 %4, 8192
  br i1 %5, label %6, label %12

6:                                                ; preds = %1
  %7 = load i32, ptr %3, align 4
  %8 = zext i32 %7 to i64
  %9 = getelementptr inbounds [8192 x i8], ptr @lzma_fastpos, i64 0, i64 %8
  %10 = load i8, ptr %9, align 1
  %11 = zext i8 %10 to i32
  store i32 %11, ptr %2, align 4
  br label %31

12:                                               ; preds = %1
  %13 = load i32, ptr %3, align 4
  %14 = icmp ult i32 %13, 33554432
  br i1 %14, label %15, label %23

15:                                               ; preds = %12
  %16 = load i32, ptr %3, align 4
  %17 = lshr i32 %16, 12
  %18 = zext i32 %17 to i64
  %19 = getelementptr inbounds [8192 x i8], ptr @lzma_fastpos, i64 0, i64 %18
  %20 = load i8, ptr %19, align 1
  %21 = zext i8 %20 to i32
  %22 = add i32 %21, 24
  store i32 %22, ptr %2, align 4
  br label %31

23:                                               ; preds = %12
  %24 = load i32, ptr %3, align 4
  %25 = lshr i32 %24, 24
  %26 = zext i32 %25 to i64
  %27 = getelementptr inbounds [8192 x i8], ptr @lzma_fastpos, i64 0, i64 %26
  %28 = load i8, ptr %27, align 1
  %29 = zext i8 %28 to i32
  %30 = add i32 %29, 48
  store i32 %30, ptr %2, align 4
  br label %31

31:                                               ; preds = %23, %15, %6
  %32 = load i32, ptr %2, align 4
  ret i32 %32
}

; Function Attrs: nounwind uwtable
define dso_local i32 @lzma_lzma2_props_encode(ptr noundef %0, ptr noundef %1) #0 {
  %3 = alloca ptr, align 8
  %4 = alloca ptr, align 8
  %5 = alloca ptr, align 8
  %6 = alloca i32, align 4
  store ptr %0, ptr %3, align 8
  store ptr %1, ptr %4, align 8
  %7 = load ptr, ptr %3, align 8
  store ptr %7, ptr %5, align 8
  %8 = load ptr, ptr %5, align 8
  %9 = getelementptr inbounds %struct.lzma_options_lzma, ptr %8, i32 0, i32 0
  %10 = load i32, ptr %9, align 8
  %11 = icmp ugt i32 %10, 4096
  br i1 %11, label %12, label %16

12:                                               ; preds = %2
  %13 = load ptr, ptr %5, align 8
  %14 = getelementptr inbounds %struct.lzma_options_lzma, ptr %13, i32 0, i32 0
  %15 = load i32, ptr %14, align 8
  br label %17

16:                                               ; preds = %2
  br label %17

17:                                               ; preds = %16, %12
  %18 = phi i32 [ %15, %12 ], [ 4096, %16 ]
  store i32 %18, ptr %6, align 4
  %19 = load i32, ptr %6, align 4
  %20 = add i32 %19, -1
  store i32 %20, ptr %6, align 4
  %21 = load i32, ptr %6, align 4
  %22 = lshr i32 %21, 2
  %23 = load i32, ptr %6, align 4
  %24 = or i32 %23, %22
  store i32 %24, ptr %6, align 4
  %25 = load i32, ptr %6, align 4
  %26 = lshr i32 %25, 3
  %27 = load i32, ptr %6, align 4
  %28 = or i32 %27, %26
  store i32 %28, ptr %6, align 4
  %29 = load i32, ptr %6, align 4
  %30 = lshr i32 %29, 4
  %31 = load i32, ptr %6, align 4
  %32 = or i32 %31, %30
  store i32 %32, ptr %6, align 4
  %33 = load i32, ptr %6, align 4
  %34 = lshr i32 %33, 8
  %35 = load i32, ptr %6, align 4
  %36 = or i32 %35, %34
  store i32 %36, ptr %6, align 4
  %37 = load i32, ptr %6, align 4
  %38 = lshr i32 %37, 16
  %39 = load i32, ptr %6, align 4
  %40 = or i32 %39, %38
  store i32 %40, ptr %6, align 4
  %41 = load i32, ptr %6, align 4
  %42 = icmp eq i32 %41, -1
  br i1 %42, label %43, label %46

43:                                               ; preds = %17
  %44 = load ptr, ptr %4, align 8
  %45 = getelementptr inbounds i8, ptr %44, i64 0
  store i8 40, ptr %45, align 1
  br label %54

46:                                               ; preds = %17
  %47 = load i32, ptr %6, align 4
  %48 = add i32 %47, 1
  %49 = call i32 @get_dist_slot(i32 noundef %48)
  %50 = sub i32 %49, 24
  %51 = trunc i32 %50 to i8
  %52 = load ptr, ptr %4, align 8
  %53 = getelementptr inbounds i8, ptr %52, i64 0
  store i8 %51, ptr %53, align 1
  br label %54

54:                                               ; preds = %46, %43
  ret i32 0
}