; Function Attrs: mustprogress nofree norecurse nosync nounwind willreturn memory(argmem: readwrite) uwtable
define dso_local noundef i32 @lzma_lzma2_props_encode(ptr noundef readonly captures(none) %0, ptr noundef writeonly captures(none) initializes((0, 1)) %1) local_unnamed_addr #2 {
  %3 = load i32, ptr %0, align 8
  %4 = tail call i32 @llvm.umax.i32(i32 %3, i32 4096)
  %spec.select = add i32 %4, -1
  %5 = lshr i32 %spec.select, 2
  %6 = or i32 %5, %spec.select
  %7 = lshr i32 %6, 3
  %8 = or i32 %7, %6
  %9 = lshr i32 %8, 4
  %10 = or i32 %9, %8
  %11 = lshr i32 %10, 8
  %12 = or i32 %11, %10
  %13 = lshr i32 %12, 16
  %14 = or i32 %13, %12
  %15 = icmp eq i32 %14, -1
  br i1 %15, label %38, label %16

16:                                               ; preds = %2
  %17 = add nuw i32 %14, 1
  %18 = icmp ult i32 %14, 8191
  br i1 %18, label %19, label %23

19:                                               ; preds = %16
  %20 = zext nneg i32 %17 to i64
  %21 = getelementptr inbounds nuw [8192 x i8], ptr @lzma_fastpos, i64 0, i64 %20
  %22 = load i8, ptr %21, align 1
  br label %get_dist_slot.exit

23:                                               ; preds = %16
  %24 = icmp ult i32 %14, 33554431
  br i1 %24, label %25, label %31

25:                                               ; preds = %23
  %26 = lshr i32 %17, 12
  %27 = zext nneg i32 %26 to i64
  %28 = getelementptr inbounds nuw [8192 x i8], ptr @lzma_fastpos, i64 0, i64 %27
  %29 = load i8, ptr %28, align 1
  %30 = add i8 %29, 24
  br label %get_dist_slot.exit

31:                                               ; preds = %23
  %32 = lshr i32 %17, 24
  %33 = zext nneg i32 %32 to i64
  %34 = getelementptr inbounds nuw [8192 x i8], ptr @lzma_fastpos, i64 0, i64 %33
  %35 = load i8, ptr %34, align 1
  %36 = add i8 %35, 48
  br label %get_dist_slot.exit

get_dist_slot.exit:                               ; preds = %19, %25, %31
  %.0.i = phi i8 [ %22, %19 ], [ %30, %25 ], [ %36, %31 ]
  %37 = add i8 %.0.i, -24
  br label %38

38:                                               ; preds = %2, %get_dist_slot.exit
  %storemerge = phi i8 [ %37, %get_dist_slot.exit ], [ 40, %2 ]
  store i8 %storemerge, ptr %1, align 1
  ret i32 0
}